; ModuleID = '44/1159.c'
source_filename = "44/1159.c"
target datalayout = "e-m:e-p270:32:32-p271:32:32-p272:64:64-i64:64-f80:128-n8:16:32:64-S128"
target triple = "x86_64-pc-linux-gnu"

@.str = private unnamed_addr constant [3 x i8] c"%d\00", align 1
@.str.1 = private unnamed_addr constant [4 x i8] c"%d\0A\00", align 1

; Function Attrs: noinline nounwind uwtable
define dso_local i32 @reverse(i32 %0) #0 {
  %2 = alloca i32, align 4
  %3 = alloca i32, align 4
  %4 = alloca i32, align 4
  %5 = alloca i32, align 4
  %6 = alloca i32, align 4
  %7 = alloca i32, align 4
  %8 = alloca [10 x i32], align 16
  %9 = alloca [10 x i32], align 16
  store i32 %0, i32* %2, align 4
  store i32 1, i32* %3, align 4
  store i32 0, i32* %4, align 4
  store i32 0, i32* %5, align 4
  store i32 0, i32* %6, align 4
  br label %10

10:                                               ; preds = %28, %1
  %11 = load i32, i32* %2, align 4
  %12 = icmp ne i32 %11, 0
  br i1 %12, label %13, label %31

13:                                               ; preds = %10
  %14 = load i32, i32* %2, align 4
  %15 = srem i32 %14, 10
  %16 = load i32, i32* %6, align 4
  %17 = sext i32 %16 to i64
  %18 = getelementptr inbounds [10 x i32], [10 x i32]* %8, i64 0, i64 %17
  store i32 %15, i32* %18, align 4
  %19 = load i32, i32* %4, align 4
  %20 = add nsw i32 %19, 1
  store i32 %20, i32* %4, align 4
  %21 = load i32, i32* %2, align 4
  %22 = load i32, i32* %2, align 4
  %23 = srem i32 %22, 10
  %24 = sub nsw i32 %21, %23
  %25 = sdiv i32 %24, 10
  store i32 %25, i32* %2, align 4
  %26 = load i32, i32* %3, align 4
  %27 = mul nsw i32 %26, 10
  store i32 %27, i32* %3, align 4
  br label %28

28:                                               ; preds = %13
  %29 = load i32, i32* %6, align 4
  %30 = add nsw i32 %29, 1
  store i32 %30, i32* %6, align 4
  br label %10

31:                                               ; preds = %10
  %32 = load i32, i32* %3, align 4
  %33 = sdiv i32 %32, 10
  store i32 %33, i32* %3, align 4
  store i32 0, i32* %6, align 4
  br label %34

34:                                               ; preds = %49, %31
  %35 = load i32, i32* %6, align 4
  %36 = load i32, i32* %4, align 4
  %37 = icmp slt i32 %35, %36
  br i1 %37, label %38, label %52

38:                                               ; preds = %34
  %39 = load i32, i32* %6, align 4
  %40 = sext i32 %39 to i64
  %41 = getelementptr inbounds [10 x i32], [10 x i32]* %8, i64 0, i64 %40
  %42 = load i32, i32* %41, align 4
  %43 = icmp ne i32 %42, 0
  br i1 %43, label %44, label %45

44:                                               ; preds = %38
  br label %52

45:                                               ; preds = %38
  %46 = load i32, i32* %3, align 4
  %47 = sdiv i32 %46, 10
  store i32 %47, i32* %3, align 4
  br label %48

48:                                               ; preds = %45
  br label %49

49:                                               ; preds = %48
  %50 = load i32, i32* %6, align 4
  %51 = add nsw i32 %50, 1
  store i32 %51, i32* %6, align 4
  br label %34

52:                                               ; preds = %44, %34
  store i32 0, i32* %7, align 4
  br label %53

53:                                               ; preds = %69, %52
  %54 = load i32, i32* %7, align 4
  %55 = load i32, i32* %4, align 4
  %56 = load i32, i32* %6, align 4
  %57 = sub nsw i32 %55, %56
  %58 = icmp slt i32 %54, %57
  br i1 %58, label %59, label %72

59:                                               ; preds = %53
  %60 = load i32, i32* %6, align 4
  %61 = load i32, i32* %7, align 4
  %62 = add nsw i32 %60, %61
  %63 = sext i32 %62 to i64
  %64 = getelementptr inbounds [10 x i32], [10 x i32]* %8, i64 0, i64 %63
  %65 = load i32, i32* %64, align 4
  %66 = load i32, i32* %7, align 4
  %67 = sext i32 %66 to i64
  %68 = getelementptr inbounds [10 x i32], [10 x i32]* %9, i64 0, i64 %67
  store i32 %65, i32* %68, align 4
  br label %69

69:                                               ; preds = %59
  %70 = load i32, i32* %7, align 4
  %71 = add nsw i32 %70, 1
  store i32 %71, i32* %7, align 4
  br label %53

72:                                               ; preds = %53
  store i32 0, i32* %7, align 4
  br label %73

73:                                               ; preds = %90, %72
  %74 = load i32, i32* %7, align 4
  %75 = load i32, i32* %4, align 4
  %76 = load i32, i32* %6, align 4
  %77 = sub nsw i32 %75, %76
  %78 = icmp slt i32 %74, %77
  br i1 %78, label %79, label %93

79:                                               ; preds = %73
  %80 = load i32, i32* %5, align 4
  %81 = load i32, i32* %7, align 4
  %82 = sext i32 %81 to i64
  %83 = getelementptr inbounds [10 x i32], [10 x i32]* %9, i64 0, i64 %82
  %84 = load i32, i32* %83, align 4
  %85 = load i32, i32* %3, align 4
  %86 = mul nsw i32 %84, %85
  %87 = add nsw i32 %80, %86
  store i32 %87, i32* %5, align 4
  %88 = load i32, i32* %3, align 4
  %89 = sdiv i32 %88, 10
  store i32 %89, i32* %3, align 4
  br label %90

90:                                               ; preds = %79
  %91 = load i32, i32* %7, align 4
  %92 = add nsw i32 %91, 1
  store i32 %92, i32* %7, align 4
  br label %73

93:                                               ; preds = %73
  %94 = load i32, i32* %5, align 4
  ret i32 %94
}

; Function Attrs: noinline nounwind uwtable
define dso_local void @main() #0 {
  %1 = alloca [6 x i32], align 16
  %2 = alloca i32, align 4
  store i32 0, i32* %2, align 4
  br label %3

3:                                                ; preds = %11, %0
  %4 = load i32, i32* %2, align 4
  %5 = icmp slt i32 %4, 6
  br i1 %5, label %6, label %14

6:                                                ; preds = %3
  %7 = load i32, i32* %2, align 4
  %8 = sext i32 %7 to i64
  %9 = getelementptr inbounds [6 x i32], [6 x i32]* %1, i64 0, i64 %8
  %10 = call i32 (i8*, ...) @__isoc99_scanf(i8* getelementptr inbounds ([3 x i8], [3 x i8]* @.str, i64 0, i64 0), i32* %9)
  br label %11

11:                                               ; preds = %6
  %12 = load i32, i32* %2, align 4
  %13 = add nsw i32 %12, 1
  store i32 %13, i32* %2, align 4
  br label %3

14:                                               ; preds = %3
  store i32 0, i32* %2, align 4
  br label %15

15:                                               ; preds = %25, %14
  %16 = load i32, i32* %2, align 4
  %17 = icmp slt i32 %16, 6
  br i1 %17, label %18, label %28

18:                                               ; preds = %15
  %19 = load i32, i32* %2, align 4
  %20 = sext i32 %19 to i64
  %21 = getelementptr inbounds [6 x i32], [6 x i32]* %1, i64 0, i64 %20
  %22 = load i32, i32* %21, align 4
  %23 = call i32 @reverse(i32 %22)
  %24 = call i32 (i8*, ...) @printf(i8* getelementptr inbounds ([4 x i8], [4 x i8]* @.str.1, i64 0, i64 0), i32 %23)
  br label %25

25:                                               ; preds = %18
  %26 = load i32, i32* %2, align 4
  %27 = add nsw i32 %26, 1
  store i32 %27, i32* %2, align 4
  br label %15

28:                                               ; preds = %15
  ret void
}

declare dso_local i32 @__isoc99_scanf(i8*, ...) #1

declare dso_local i32 @printf(i8*, ...) #1


!llvm.module.flags = !{!0}
!llvm.ident = !{!1}

!0 = !{i32 1, !"wchar_size", i32 4}
!1 = !{!"clang version 10.0.0-4ubuntu1 "}
